; Function Attrs: mustprogress uwtable
define dso_local void @_ZN14V3OutFormatter12putBreakExprEv(ptr noundef nonnull align 8 dereferenceable(164) %0) local_unnamed_addr #4 align 2 {
  %2 = getelementptr inbounds nuw i8, ptr %0, i64 128
  %3 = getelementptr inbounds nuw i8, ptr %0, i64 96
  %4 = load ptr, ptr %2, align 8, !tbaa !239
  %5 = load ptr, ptr %3, align 8, !tbaa !239
  %6 = icmp eq ptr %4, %5
  br i1 %6, label %8, label %7

7:                                                ; preds = %1
  tail call void @_ZN14V3OutFormatter8putBreakEv(ptr noundef nonnull align 8 dereferenceable(164) %0)
  br label %8

8:                                                ; preds = %7, %1
  ret void
}